; Function Attrs: mustprogress uwtable
define dso_local noundef ptr @_ZN11V3DfgPasses8dfgToAstER8DfgGraphR24V3DfgOptimizationContext(ptr noundef nonnull align 8 dereferenceable(104) %0, ptr noundef nonnull align 8 dereferenceable(1336) %1) #3 {
  %3 = alloca %class.DfgToAstVisitor, align 8
  call void @llvm.lifetime.start.p0(i64 232, ptr nonnull %3)
  call void @_ZN15DfgToAstVisitorC2ER8DfgGraphR24V3DfgOptimizationContext(ptr noundef nonnull align 8 dereferenceable(232) %3, ptr noundef nonnull align 8 dereferenceable(104) %0, ptr noundef nonnull align 8 dereferenceable(1336) %1)
  %4 = getelementptr inbounds i8, ptr %3, i64 8
  %5 = load ptr, ptr %4, align 8
  call void @_ZN15DfgToAstVisitorD2Ev(ptr noundef nonnull align 8 dereferenceable(232) %3) #18
  call void @llvm.lifetime.end.p0(i64 232, ptr nonnull %3)
  ret ptr %5
}